target datalayout = "e-m:e-p270:32:32-p271:32:32-p272:64:64-i64:64-i128:128-f80:128-n8:16:32:64-S128"
target triple = "x86_64-pc-linux-gnu"

%struct.ossl_param_st = type { ptr, i32, ptr, i64, i64 }

@.str.6 = private unnamed_addr constant [35 x i8] c"../openssl/test/param_build_test.c\00", align 1
@.str.7 = private unnamed_addr constant [27 x i8] c"bld = OSSL_PARAM_BLD_new()\00", align 1
@.str.8 = private unnamed_addr constant [15 x i8] c"zbn = BN_new()\00", align 1
@.str.9 = private unnamed_addr constant [65 x i8] c"OSSL_PARAM_BLD_push_BN(bld, \22zeronumber\22, idx == 0 ? zbn : NULL)\00", align 1
@.str.10 = private unnamed_addr constant [11 x i8] c"zeronumber\00", align 1
@.str.11 = private unnamed_addr constant [42 x i8] c"params_blt = OSSL_PARAM_BLD_to_param(bld)\00", align 1
@.str.12 = private unnamed_addr constant [44 x i8] c"p = OSSL_PARAM_locate(params, \22zeronumber\22)\00", align 1
@.str.13 = private unnamed_addr constant [7 x i8] c"p->key\00", align 1
@.str.14 = private unnamed_addr constant [13 x i8] c"\22zeronumber\22\00", align 1
@.str.15 = private unnamed_addr constant [13 x i8] c"p->data_type\00", align 1
@.str.16 = private unnamed_addr constant [28 x i8] c"OSSL_PARAM_UNSIGNED_INTEGER\00", align 1
@.str.17 = private unnamed_addr constant [31 x i8] c"OSSL_PARAM_get_BN(p, &zbn_res)\00", align 1
@.str.18 = private unnamed_addr constant [8 x i8] c"zbn_res\00", align 1
@.str.19 = private unnamed_addr constant [4 x i8] c"zbn\00", align 1

; Function Attrs: nounwind uwtable
define internal i32 @template_public_single_zero_test(i32 noundef %0) #0 {
  %2 = alloca i32, align 4
  %3 = alloca ptr, align 8
  %4 = alloca ptr, align 8
  %5 = alloca ptr, align 8
  %6 = alloca ptr, align 8
  %7 = alloca ptr, align 8
  %8 = alloca ptr, align 8
  %9 = alloca i32, align 4
  store i32 %0, ptr %2, align 4, !tbaa !4
  call void @llvm.lifetime.start.p0(i64 8, ptr %3) #3
  store ptr null, ptr %3, align 8, !tbaa !8
  call void @llvm.lifetime.start.p0(i64 8, ptr %4) #3
  store ptr null, ptr %4, align 8, !tbaa !11
  call void @llvm.lifetime.start.p0(i64 8, ptr %5) #3
  store ptr null, ptr %5, align 8, !tbaa !11
  call void @llvm.lifetime.start.p0(i64 8, ptr %6) #3
  call void @llvm.lifetime.start.p0(i64 8, ptr %7) #3
  store ptr null, ptr %7, align 8, !tbaa !13
  call void @llvm.lifetime.start.p0(i64 8, ptr %8) #3
  store ptr null, ptr %8, align 8, !tbaa !13
  call void @llvm.lifetime.start.p0(i64 4, ptr %9) #3
  store i32 0, ptr %9, align 4, !tbaa !4
  %10 = call ptr @OSSL_PARAM_BLD_new()
  store ptr %10, ptr %3, align 8, !tbaa !8
  %11 = call i32 @test_ptr(ptr noundef @.str.6, i32 noundef 26, ptr noundef @.str.7, ptr noundef %10)
  %12 = icmp ne i32 %11, 0
  br i1 %12, label %13, label %36

13:                                               ; preds = %1
  %14 = call ptr @BN_new()
  store ptr %14, ptr %7, align 8, !tbaa !13
  %15 = call i32 @test_ptr(ptr noundef @.str.6, i32 noundef 27, ptr noundef @.str.8, ptr noundef %14)
  %16 = icmp ne i32 %15, 0
  br i1 %16, label %17, label %36

17:                                               ; preds = %13
  %18 = load ptr, ptr %3, align 8, !tbaa !8
  %19 = load i32, ptr %2, align 4, !tbaa !4
  %20 = icmp eq i32 %19, 0
  br i1 %20, label %21, label %23

21:                                               ; preds = %17
  %22 = load ptr, ptr %7, align 8, !tbaa !13
  br label %24

23:                                               ; preds = %17
  br label %24

24:                                               ; preds = %23, %21
  %25 = phi ptr [ %22, %21 ], [ null, %23 ]
  %26 = call i32 @OSSL_PARAM_BLD_push_BN(ptr noundef %18, ptr noundef @.str.10, ptr noundef %25)
  %27 = icmp ne i32 %26, 0
  %28 = zext i1 %27 to i32
  %29 = call i32 @test_true(ptr noundef @.str.6, i32 noundef 29, ptr noundef @.str.9, i32 noundef %28)
  %30 = icmp ne i32 %29, 0
  br i1 %30, label %31, label %36

31:                                               ; preds = %24
  %32 = load ptr, ptr %3, align 8, !tbaa !8
  %33 = call ptr @OSSL_PARAM_BLD_to_param(ptr noundef %32)
  store ptr %33, ptr %5, align 8, !tbaa !11
  %34 = call i32 @test_ptr(ptr noundef @.str.6, i32 noundef 30, ptr noundef @.str.11, ptr noundef %33)
  %35 = icmp ne i32 %34, 0
  br i1 %35, label %37, label %36

36:                                               ; preds = %31, %24, %13, %1
  br label %69

37:                                               ; preds = %31
  %38 = load ptr, ptr %5, align 8, !tbaa !11
  store ptr %38, ptr %4, align 8, !tbaa !11
  %39 = load ptr, ptr %4, align 8, !tbaa !11
  %40 = call ptr @OSSL_PARAM_locate(ptr noundef %39, ptr noundef @.str.10)
  store ptr %40, ptr %6, align 8, !tbaa !11
  %41 = call i32 @test_ptr(ptr noundef @.str.6, i32 noundef 35, ptr noundef @.str.12, ptr noundef %40)
  %42 = icmp ne i32 %41, 0
  br i1 %42, label %43, label %67

43:                                               ; preds = %37
  %44 = load ptr, ptr %6, align 8, !tbaa !11
  %45 = getelementptr inbounds nuw %struct.ossl_param_st, ptr %44, i32 0, i32 0
  %46 = load ptr, ptr %45, align 8, !tbaa !15
  %47 = call i32 @test_str_eq(ptr noundef @.str.6, i32 noundef 36, ptr noundef @.str.13, ptr noundef @.str.14, ptr noundef %46, ptr noundef @.str.10)
  %48 = icmp ne i32 %47, 0
  br i1 %48, label %49, label %67

49:                                               ; preds = %43
  %50 = load ptr, ptr %6, align 8, !tbaa !11
  %51 = getelementptr inbounds nuw %struct.ossl_param_st, ptr %50, i32 0, i32 1
  %52 = load i32, ptr %51, align 8, !tbaa !19
  %53 = call i32 @test_uint_eq(ptr noundef @.str.6, i32 noundef 37, ptr noundef @.str.15, ptr noundef @.str.16, i32 noundef %52, i32 noundef 2)
  %54 = icmp ne i32 %53, 0
  br i1 %54, label %55, label %67

55:                                               ; preds = %49
  %56 = load ptr, ptr %6, align 8, !tbaa !11
  %57 = call i32 @OSSL_PARAM_get_BN(ptr noundef %56, ptr noundef %8)
  %58 = icmp ne i32 %57, 0
  %59 = zext i1 %58 to i32
  %60 = call i32 @test_true(ptr noundef @.str.6, i32 noundef 38, ptr noundef @.str.17, i32 noundef %59)
  %61 = icmp ne i32 %60, 0
  br i1 %61, label %62, label %67

62:                                               ; preds = %55
  %63 = load ptr, ptr %8, align 8, !tbaa !13
  %64 = load ptr, ptr %7, align 8, !tbaa !13
  %65 = call i32 @test_BN_eq(ptr noundef @.str.6, i32 noundef 39, ptr noundef @.str.18, ptr noundef @.str.19, ptr noundef %63, ptr noundef %64)
  %66 = icmp ne i32 %65, 0
  br i1 %66, label %68, label %67

67:                                               ; preds = %62, %55, %49, %43, %37
  br label %69

68:                                               ; preds = %62
  store i32 1, ptr %9, align 4, !tbaa !4
  br label %69

69:                                               ; preds = %68, %67, %36
  %70 = load ptr, ptr %4, align 8, !tbaa !11
  %71 = load ptr, ptr %5, align 8, !tbaa !11
  %72 = icmp ne ptr %70, %71
  br i1 %72, label %73, label %75

73:                                               ; preds = %69
  %74 = load ptr, ptr %4, align 8, !tbaa !11
  call void @CRYPTO_free(ptr noundef %74, ptr noundef @.str.6, i32 noundef 44)
  br label %75

75:                                               ; preds = %73, %69
  %76 = load ptr, ptr %5, align 8, !tbaa !11
  call void @OSSL_PARAM_free(ptr noundef %76)
  %77 = load ptr, ptr %3, align 8, !tbaa !8
  call void @OSSL_PARAM_BLD_free(ptr noundef %77)
  %78 = load ptr, ptr %7, align 8, !tbaa !13
  call void @BN_free(ptr noundef %78)
  %79 = load ptr, ptr %8, align 8, !tbaa !13
  call void @BN_free(ptr noundef %79)
  %80 = load i32, ptr %9, align 4, !tbaa !4
  call void @llvm.lifetime.end.p0(i64 4, ptr %9) #3
  call void @llvm.lifetime.end.p0(i64 8, ptr %8) #3
  call void @llvm.lifetime.end.p0(i64 8, ptr %7) #3
  call void @llvm.lifetime.end.p0(i64 8, ptr %6) #3
  call void @llvm.lifetime.end.p0(i64 8, ptr %5) #3
  call void @llvm.lifetime.end.p0(i64 8, ptr %4) #3
  call void @llvm.lifetime.end.p0(i64 8, ptr %3) #3
  ret i32 %80
}