; Function Attrs: nounwind uwtable
define internal range(i32 0, 2) i32 @template_public_single_zero_test(i32 noundef %0) #0 {
  %2 = alloca ptr, align 8
  call void @llvm.lifetime.start.p0(i64 8, ptr nonnull %2) #3
  store ptr null, ptr %2, align 8, !tbaa !4
  %3 = tail call ptr @OSSL_PARAM_BLD_new() #3
  %4 = tail call i32 @test_ptr(ptr noundef nonnull @.str.6, i32 noundef 26, ptr noundef nonnull @.str.7, ptr noundef %3) #3
  %.not = icmp eq i32 %4, 0
  br i1 %.not, label %.thread, label %5

5:                                                ; preds = %1
  %6 = tail call ptr @BN_new() #3
  %7 = tail call i32 @test_ptr(ptr noundef nonnull @.str.6, i32 noundef 27, ptr noundef nonnull @.str.8, ptr noundef %6) #3
  %.not19 = icmp eq i32 %7, 0
  br i1 %.not19, label %.thread, label %8

8:                                                ; preds = %5
  %9 = icmp eq i32 %0, 0
  %10 = select i1 %9, ptr %6, ptr null
  %11 = tail call i32 @OSSL_PARAM_BLD_push_BN(ptr noundef %3, ptr noundef nonnull @.str.10, ptr noundef %10) #3
  %12 = icmp ne i32 %11, 0
  %13 = zext i1 %12 to i32
  %14 = tail call i32 @test_true(ptr noundef nonnull @.str.6, i32 noundef 29, ptr noundef nonnull @.str.9, i32 noundef %13) #3
  %.not20 = icmp eq i32 %14, 0
  br i1 %.not20, label %.thread, label %15

15:                                               ; preds = %8
  %16 = tail call ptr @OSSL_PARAM_BLD_to_param(ptr noundef %3) #3
  %17 = tail call i32 @test_ptr(ptr noundef nonnull @.str.6, i32 noundef 30, ptr noundef nonnull @.str.11, ptr noundef %16) #3
  %.not21 = icmp eq i32 %17, 0
  br i1 %.not21, label %36, label %18

18:                                               ; preds = %15
  %19 = tail call ptr @OSSL_PARAM_locate(ptr noundef %16, ptr noundef nonnull @.str.10) #3
  %20 = tail call i32 @test_ptr(ptr noundef nonnull @.str.6, i32 noundef 35, ptr noundef nonnull @.str.12, ptr noundef %19) #3
  %.not22 = icmp eq i32 %20, 0
  br i1 %.not22, label %.thread, label %21

21:                                               ; preds = %18
  %22 = load ptr, ptr %19, align 8, !tbaa !9
  %23 = tail call i32 @test_str_eq(ptr noundef nonnull @.str.6, i32 noundef 36, ptr noundef nonnull @.str.13, ptr noundef nonnull @.str.14, ptr noundef %22, ptr noundef nonnull @.str.10) #3
  %.not23 = icmp eq i32 %23, 0
  br i1 %.not23, label %.thread, label %24

24:                                               ; preds = %21
  %25 = getelementptr inbounds nuw i8, ptr %19, i64 8
  %26 = load i32, ptr %25, align 8, !tbaa !14
  %27 = tail call i32 @test_uint_eq(ptr noundef nonnull @.str.6, i32 noundef 37, ptr noundef nonnull @.str.15, ptr noundef nonnull @.str.16, i32 noundef %26, i32 noundef 2) #3
  %.not24 = icmp eq i32 %27, 0
  br i1 %.not24, label %.thread, label %28

28:                                               ; preds = %24
  %29 = call i32 @OSSL_PARAM_get_BN(ptr noundef nonnull %19, ptr noundef nonnull %2) #3
  %30 = icmp ne i32 %29, 0
  %31 = zext i1 %30 to i32
  %32 = call i32 @test_true(ptr noundef nonnull @.str.6, i32 noundef 38, ptr noundef nonnull @.str.17, i32 noundef %31) #3
  %.not25 = icmp eq i32 %32, 0
  br i1 %.not25, label %.thread, label %33

33:                                               ; preds = %28
  %34 = load ptr, ptr %2, align 8, !tbaa !4
  %35 = call i32 @test_BN_eq(ptr noundef nonnull @.str.6, i32 noundef 39, ptr noundef nonnull @.str.18, ptr noundef nonnull @.str.19, ptr noundef %34, ptr noundef %6) #3
  %.not26 = icmp ne i32 %35, 0
  %spec.select = zext i1 %.not26 to i32
  br label %.thread

36:                                               ; preds = %15
  %.not27 = icmp eq ptr %16, null
  br i1 %.not27, label %.thread, label %37

37:                                               ; preds = %36
  tail call void @CRYPTO_free(ptr noundef null, ptr noundef nonnull @.str.6, i32 noundef 44) #3
  br label %.thread

.thread:                                          ; preds = %33, %1, %5, %8, %18, %21, %24, %28, %37, %36
  %.035 = phi i32 [ 0, %37 ], [ 0, %36 ], [ %spec.select, %33 ], [ 0, %1 ], [ 0, %5 ], [ 0, %8 ], [ 0, %18 ], [ 0, %21 ], [ 0, %24 ], [ 0, %28 ]
  %.01634 = phi ptr [ %6, %37 ], [ %6, %36 ], [ %6, %33 ], [ null, %1 ], [ %6, %5 ], [ %6, %8 ], [ %6, %18 ], [ %6, %21 ], [ %6, %24 ], [ %6, %28 ]
  %.01733 = phi ptr [ %16, %37 ], [ null, %36 ], [ %16, %33 ], [ null, %1 ], [ null, %5 ], [ null, %8 ], [ %16, %18 ], [ %16, %21 ], [ %16, %24 ], [ %16, %28 ]
  call void @OSSL_PARAM_free(ptr noundef %.01733) #3
  call void @OSSL_PARAM_BLD_free(ptr noundef %3) #3
  call void @BN_free(ptr noundef %.01634) #3
  %38 = load ptr, ptr %2, align 8, !tbaa !4
  call void @BN_free(ptr noundef %38) #3
  call void @llvm.lifetime.end.p0(i64 8, ptr nonnull %2) #3
  ret i32 %.035
}